;--------------------------------------------------------
; File Created by SDCC : free open source ISO C Compiler 
; Version 4.4.1 #14650 (MINGW64)
;--------------------------------------------------------
	.module main
	.optsdcc -msm83
	
;--------------------------------------------------------
; Public variables in this module
;--------------------------------------------------------
	.globl _main
	.globl _font_set
	.globl _font_load
	.globl _font_init
	.globl _puts
	.globl _printf
	.globl _fill_bkg_rect
	.globl _set_bkg_tiles
	.globl _set_bkg_data
	.globl _waitpad
	.globl _joypad
	.globl _delay
	.globl _Fase2_BackGround
	.globl _Fase1_BackGround
	.globl _Student
	.globl _Fase2_Sprites
	.globl _Fase1_Sprites
	.globl __Clock
	.globl _Car
	.globl _Bus
	.globl _limpar_tela
	.globl _tela_inicial
	.globl _fase1
	.globl _fase2
;--------------------------------------------------------
; special function registers
;--------------------------------------------------------
;--------------------------------------------------------
; ram data
;--------------------------------------------------------
	.area _DATA
;--------------------------------------------------------
; ram data
;--------------------------------------------------------
	.area _INITIALIZED
_Bus::
	.ds 64
_Car::
	.ds 64
__Clock::
	.ds 16
_Fase1_Sprites::
	.ds 320
_Fase2_Sprites::
	.ds 256
_Student::
	.ds 64
_Fase1_BackGround::
	.ds 576
_Fase2_BackGround::
	.ds 576
;--------------------------------------------------------
; absolute external ram data
;--------------------------------------------------------
	.area _DABS (ABS)
;--------------------------------------------------------
; global & static initialisations
;--------------------------------------------------------
	.area _HOME
	.area _GSINIT
	.area _GSFINAL
	.area _GSINIT
;--------------------------------------------------------
; Home
;--------------------------------------------------------
	.area _HOME
	.area _HOME
;--------------------------------------------------------
; code
;--------------------------------------------------------
	.area _CODE
;main.c:13: void limpar_tela(){
;	---------------------------------
; Function limpar_tela
; ---------------------------------
_limpar_tela::
;main.c:14: fill_bkg_rect(0, 0, 32, 18, 0);
	xor	a, a
	ld	h, a
	ld	l, #0x12
	push	hl
	ld	a, #0x20
	push	af
	inc	sp
	xor	a, a
	rrca
	push	af
	call	_fill_bkg_rect
	add	sp, #5
;main.c:15: }
	ret
;main.c:22: void tela_inicial(){
;	---------------------------------
; Function tela_inicial
; ---------------------------------
_tela_inicial::
;main.c:24: font_init();
	call	_font_init
;main.c:25: font_set(font_load(font_spect));
	ld	de, #_font_spect
	push	de
	call	_font_load
	pop	hl
	push	de
	call	_font_set
	pop	hl
;main.c:29: printf("PRESS ENTER TO START\n");
	ld	de, #___str_4
	call	_puts
;main.c:31: waitpad(J_START); // Espera at√© que a tecla Enter seja pressionada
	ld	a, #0x80
;main.c:34: }
	jp	_waitpad
___str_4:
	.db 0x0a
	.ascii " "
	.db 0x0a
	.ascii " "
	.db 0x0a
	.ascii "     RUSH RESUN"
	.db 0x0a
	.db 0x0a
	.db 0x0a
	.ascii "PRESS ENTER TO START"
	.db 0x00
;main.c:36: void fase1(){
;	---------------------------------
; Function fase1
; ---------------------------------
_fase1::
;main.c:38: limpar_tela();
	call	_limpar_tela
;main.c:39: set_bkg_data(0, 20, Fase1_Sprites);
	ld	de, #_Fase1_Sprites
	push	de
	ld	hl, #0x1400
	push	hl
	call	_set_bkg_data
	add	sp, #4
;main.c:40: set_bkg_tiles(0, 0, 32, 18, Fase1_BackGround);
	ld	de, #_Fase1_BackGround
	push	de
	ld	hl, #0x1220
	push	hl
	xor	a, a
	rrca
	push	af
	call	_set_bkg_tiles
	add	sp, #6
;main.c:42: SHOW_BKG;
	ldh	a, (_LCDC_REG + 0)
	or	a, #0x01
	ldh	(_LCDC_REG + 0), a
;main.c:43: DISPLAY_ON;
	ldh	a, (_LCDC_REG + 0)
	or	a, #0x80
	ldh	(_LCDC_REG + 0), a
;main.c:45: while(1){
00104$:
;c:\gbdk\include\gb\gb.h:1463: SCX_REG+=x, SCY_REG+=y;
	ldh	a, (_SCX_REG + 0)
	add	a, #0x02
	ldh	(_SCX_REG + 0), a
;main.c:47: delay(100);
	ld	de, #0x0064
	call	_delay
;main.c:52: if(joypad()){
	call	_joypad
	or	a, a
	jr	Z, 00104$
;main.c:53: break;
;main.c:56: }
	ret
;main.c:58: void fase2(){
;	---------------------------------
; Function fase2
; ---------------------------------
_fase2::
;main.c:61: limpar_tela();
	call	_limpar_tela
;main.c:62: set_bkg_data(0, 16, Fase2_Sprites);
	ld	de, #_Fase2_Sprites
	push	de
	ld	hl, #0x1000
	push	hl
	call	_set_bkg_data
	add	sp, #4
;main.c:63: set_bkg_tiles(0, 0, 32, 18, Fase2_BackGround);
	ld	de, #_Fase2_BackGround
	push	de
	ld	hl, #0x1220
	push	hl
	xor	a, a
	rrca
	push	af
	call	_set_bkg_tiles
	add	sp, #6
;main.c:65: SHOW_BKG;
	ldh	a, (_LCDC_REG + 0)
	or	a, #0x01
	ldh	(_LCDC_REG + 0), a
;main.c:66: DISPLAY_ON;
	ldh	a, (_LCDC_REG + 0)
	or	a, #0x80
	ldh	(_LCDC_REG + 0), a
;main.c:68: while(1){
00104$:
;c:\gbdk\include\gb\gb.h:1463: SCX_REG+=x, SCY_REG+=y;
	ldh	a, (_SCX_REG + 0)
	add	a, #0x04
	ldh	(_SCX_REG + 0), a
;main.c:70: delay(100);
	ld	de, #0x0064
	call	_delay
;main.c:74: if(joypad()){
	call	_joypad
	or	a, a
	jr	Z, 00104$
;main.c:75: HIDE_BKG;
	ldh	a, (_LCDC_REG + 0)
	and	a, #0xfe
	ldh	(_LCDC_REG + 0), a
;main.c:76: printf("THE END");
	ld	de, #___str_5
	push	de
	call	_printf
	pop	hl
;main.c:77: break;
;main.c:80: }
	ret
___str_5:
	.ascii "THE END"
	.db 0x00
;main.c:82: void main(){
;	---------------------------------
; Function main
; ---------------------------------
_main::
;main.c:83: tela_inicial();
	call	_tela_inicial
;main.c:84: fase1();
	call	_fase1
;main.c:85: fase2(); 
;main.c:86: }
	jp	_fase2
	.area _CODE
	.area _INITIALIZER
__xinit__Bus:
	.db #0x00	; 0
	.db #0x00	; 0
	.db #0x00	; 0
	.db #0x00	; 0
	.db #0x00	; 0
	.db #0x00	; 0
	.db #0x00	; 0
	.db #0x00	; 0
	.db #0x00	; 0
	.db #0x00	; 0
	.db #0xff	; 255
	.db #0xff	; 255
	.db #0x80	; 128
	.db #0xff	; 255
	.db #0x91	; 145
	.db #0xe2	; 226
	.db #0x00	; 0
	.db #0x00	; 0
	.db #0x00	; 0
	.db #0x00	; 0
	.db #0x00	; 0
	.db #0x00	; 0
	.db #0x00	; 0
	.db #0x00	; 0
	.db #0x00	; 0
	.db #0x00	; 0
	.db #0xfc	; 252
	.db #0xfc	; 252
	.db #0x02	; 2
	.db #0xfe	; 254
	.db #0x10	; 16
	.db #0x22	; 34
	.db #0x84	; 132
	.db #0xe2	; 226
	.db #0x8c	; 140
	.db #0xe2	; 226
	.db #0x00	; 0
	.db #0xff	; 255
	.db #0x70	; 112	'p'
	.db #0xff	; 255
	.db #0x88	; 136
	.db #0xff	; 255
	.db #0xa8	; 168
	.db #0xdf	; 223
	.db #0x88	; 136
	.db #0xf8	; 248
	.db #0x70	; 112	'p'
	.db #0x70	; 112	'p'
	.db #0x44	; 68	'D'
	.db #0x22	; 34
	.db #0xcd	; 205
	.db #0x23	; 35
	.db #0x01	; 1
	.db #0xff	; 255
	.db #0x1c	; 28
	.db #0xff	; 255
	.db #0x22	; 34
	.db #0xff	; 255
	.db #0x2a	; 42
	.db #0xf7	; 247
	.db #0x22	; 34
	.db #0x3e	; 62
	.db #0x1c	; 28
	.db #0x1c	; 28
__xinit__Car:
	.db #0x00	; 0
	.db #0x00	; 0
	.db #0x00	; 0
	.db #0x00	; 0
	.db #0x00	; 0
	.db #0x00	; 0
	.db #0x00	; 0
	.db #0x00	; 0
	.db #0x00	; 0
	.db #0x00	; 0
	.db #0x00	; 0
	.db #0x00	; 0
	.db #0x00	; 0
	.db #0x00	; 0
	.db #0x01	; 1
	.db #0x01	; 1
	.db #0x00	; 0
	.db #0x00	; 0
	.db #0x00	; 0
	.db #0x00	; 0
	.db #0x00	; 0
	.db #0x00	; 0
	.db #0x00	; 0
	.db #0x00	; 0
	.db #0x00	; 0
	.db #0x00	; 0
	.db #0x00	; 0
	.db #0x00	; 0
	.db #0x00	; 0
	.db #0x00	; 0
	.db #0xfc	; 252
	.db #0xfc	; 252
	.db #0x01	; 1
	.db #0x02	; 2
	.db #0x03	; 3
	.db #0x04	; 4
	.db #0x03	; 3
	.db #0x1c	; 28
	.db #0x00	; 0
	.db #0x3f	; 63
	.db #0x46	; 70	'F'
	.db #0x7f	; 127
	.db #0x49	; 73	'I'
	.db #0x7f	; 127
	.db #0x0b	; 11
	.db #0x0d	; 13
	.db #0x06	; 6
	.db #0x06	; 6
	.db #0xde	; 222
	.db #0x22	; 34
	.db #0xdf	; 223
	.db #0x21	; 33
	.db #0xdf	; 223
	.db #0x21	; 33
	.db #0x01	; 1
	.db #0xff	; 255
	.db #0x06	; 6
	.db #0xff	; 255
	.db #0x09	; 9
	.db #0xff	; 255
	.db #0x0b	; 11
	.db #0x0d	; 13
	.db #0x06	; 6
	.db #0x06	; 6
__xinit___Clock:
	.db #0x00	; 0
	.db #0x3c	; 60
	.db #0x3c	; 60
	.db #0x52	; 82	'R'
	.db #0x7e	; 126
	.db #0x91	; 145
	.db #0x7e	; 126
	.db #0x91	; 145
	.db #0x7e	; 126
	.db #0x9d	; 157
	.db #0x7e	; 126
	.db #0x81	; 129
	.db #0x3c	; 60
	.db #0x42	; 66	'B'
	.db #0x00	; 0
	.db #0x3c	; 60
__xinit__Fase1_Sprites:
	.db #0x03	; 3
	.db #0x03	; 3
	.db #0x07	; 7
	.db #0x07	; 7
	.db #0x0f	; 15
	.db #0x0f	; 15
	.db #0x1f	; 31
	.db #0x1f	; 31
	.db #0x3f	; 63
	.db #0x3f	; 63
	.db #0x7f	; 127
	.db #0x7f	; 127
	.db #0xff	; 255
	.db #0xff	; 255
	.db #0x3f	; 63
	.db #0x20	; 32
	.db #0xc0	; 192
	.db #0xc0	; 192
	.db #0xe6	; 230
	.db #0xe6	; 230
	.db #0xf0	; 240
	.db #0xf6	; 246
	.db #0xf8	; 248
	.db #0xfe	; 254
	.db #0xfc	; 252
	.db #0xfe	; 254
	.db #0xfe	; 254
	.db #0xfe	; 254
	.db #0xff	; 255
	.db #0xff	; 255
	.db #0x84	; 132
	.db #0x7c	; 124
	.db #0x3f	; 63
	.db #0x20	; 32
	.db #0x3f	; 63
	.db #0x20	; 32
	.db #0x38	; 56	'8'
	.db #0x27	; 39
	.db #0x38	; 56	'8'
	.db #0x27	; 39
	.db #0x38	; 56	'8'
	.db #0x27	; 39
	.db #0x38	; 56	'8'
	.db #0x23	; 35
	.db #0x38	; 56	'8'
	.db #0x27	; 39
	.db #0x38	; 56	'8'
	.db #0x27	; 39
	.db #0x84	; 132
	.db #0x4c	; 76	'L'
	.db #0x84	; 132
	.db #0x4c	; 76	'L'
	.db #0x84	; 132
	.db #0x7c	; 124
	.db #0xfc	; 252
	.db #0x04	; 4
	.db #0xfc	; 252
	.db #0x04	; 4
	.db #0xfc	; 252
	.db #0x04	; 4
	.db #0xfc	; 252
	.db #0x04	; 4
	.db #0xfc	; 252
	.db #0x04	; 4
	.db #0x00	; 0
	.db #0x00	; 0
	.db #0x00	; 0
	.db #0x0c	; 12
	.db #0x3f	; 63
	.db #0x3f	; 63
	.db #0x3f	; 63
	.db #0x20	; 32
	.db #0x31	; 49	'1'
	.db #0x20	; 32
	.db #0x31	; 49	'1'
	.db #0x20	; 32
	.db #0x31	; 49	'1'
	.db #0x20	; 32
	.db #0x3f	; 63
	.db #0x20	; 32
	.db #0x00	; 0
	.db #0x00	; 0
	.db #0x00	; 0
	.db #0x18	; 24
	.db #0xfe	; 254
	.db #0xfe	; 254
	.db #0xfe	; 254
	.db #0x82	; 130
	.db #0xc6	; 198
	.db #0xba	; 186
	.db #0xc6	; 198
	.db #0xba	; 186
	.db #0xc6	; 198
	.db #0xba	; 186
	.db #0xfe	; 254
	.db #0x82	; 130
	.db #0x31	; 49	'1'
	.db #0x2e	; 46
	.db #0x31	; 49	'1'
	.db #0x2e	; 46
	.db #0x31	; 49	'1'
	.db #0x2e	; 46
	.db #0x3f	; 63
	.db #0x20	; 32
	.db #0x31	; 49	'1'
	.db #0x20	; 32
	.db #0x31	; 49	'1'
	.db #0x20	; 32
	.db #0x3f	; 63
	.db #0x20	; 32
	.db #0xff	; 255
	.db #0xff	; 255
	.db #0xc6	; 198
	.db #0x82	; 130
	.db #0xc6	; 198
	.db #0x82	; 130
	.db #0xc6	; 198
	.db #0x82	; 130
	.db #0xfe	; 254
	.db #0x82	; 130
	.db #0xc6	; 198
	.db #0xba	; 186
	.db #0xc6	; 198
	.db #0xba	; 186
	.db #0xfe	; 254
	.db #0x82	; 130
	.db #0xff	; 255
	.db #0xff	; 255
	.db #0x00	; 0
	.db #0x00	; 0
	.db #0x00	; 0
	.db #0x0f	; 15
	.db #0x00	; 0
	.db #0x0f	; 15
	.db #0x00	; 0
	.db #0x0c	; 12
	.db #0x03	; 3
	.db #0x08	; 8
	.db #0x00	; 0
	.db #0x08	; 8
	.db #0x02	; 2
	.db #0x08	; 8
	.db #0x00	; 0
	.db #0x08	; 8
	.db #0x00	; 0
	.db #0x00	; 0
	.db #0x00	; 0
	.db #0xe0	; 224
	.db #0x00	; 0
	.db #0xe0	; 224
	.db #0x00	; 0
	.db #0x60	; 96
	.db #0x80	; 128
	.db #0x20	; 32
	.db #0x00	; 0
	.db #0x20	; 32
	.db #0x80	; 128
	.db #0x20	; 32
	.db #0x00	; 0
	.db #0x20	; 32
	.db #0x00	; 0
	.db #0x0b	; 11
	.db #0x00	; 0
	.db #0x0f	; 15
	.db #0x01	; 1
	.db #0x01	; 1
	.db #0x01	; 1
	.db #0x01	; 1
	.db #0x01	; 1
	.db #0x01	; 1
	.db #0x01	; 1
	.db #0x01	; 1
	.db #0x01	; 1
	.db #0x01	; 1
	.db #0x01	; 1
	.db #0x01	; 1
	.db #0x00	; 0
	.db #0xa0	; 160
	.db #0x00	; 0
	.db #0xe0	; 224
	.db #0x00	; 0
	.db #0x00	; 0
	.db #0x00	; 0
	.db #0x00	; 0
	.db #0x00	; 0
	.db #0x00	; 0
	.db #0x00	; 0
	.db #0x00	; 0
	.db #0x00	; 0
	.db #0x00	; 0
	.db #0x00	; 0
	.db #0x00	; 0
	.db #0xff	; 255
	.db #0x00	; 0
	.db #0x00	; 0
	.db #0xff	; 255
	.db #0x00	; 0
	.db #0xff	; 255
	.db #0x00	; 0
	.db #0xff	; 255
	.db #0x00	; 0
	.db #0xff	; 255
	.db #0x00	; 0
	.db #0xff	; 255
	.db #0x00	; 0
	.db #0xff	; 255
	.db #0x00	; 0
	.db #0xff	; 255
	.db #0xcf	; 207
	.db #0x30	; 48	'0'
	.db #0x00	; 0
	.db #0xff	; 255
	.db #0x00	; 0
	.db #0xff	; 255
	.db #0x00	; 0
	.db #0xff	; 255
	.db #0x00	; 0
	.db #0xff	; 255
	.db #0x00	; 0
	.db #0xff	; 255
	.db #0x00	; 0
	.db #0xff	; 255
	.db #0x00	; 0
	.db #0xff	; 255
	.db #0xcf	; 207
	.db #0x30	; 48	'0'
	.db #0x00	; 0
	.db #0xff	; 255
	.db #0x00	; 0
	.db #0xff	; 255
	.db #0x00	; 0
	.db #0xff	; 255
	.db #0x00	; 0
	.db #0xff	; 255
	.db #0x00	; 0
	.db #0xff	; 255
	.db #0x00	; 0
	.db #0xff	; 255
	.db #0xff	; 255
	.db #0x00	; 0
	.db #0x00	; 0
	.db #0x00	; 0
	.db #0x00	; 0
	.db #0x00	; 0
	.db #0x00	; 0
	.db #0x00	; 0
	.db #0x00	; 0
	.db #0x00	; 0
	.db #0x00	; 0
	.db #0x00	; 0
	.db #0x00	; 0
	.db #0x00	; 0
	.db #0x03	; 3
	.db #0x03	; 3
	.db #0x04	; 4
	.db #0x04	; 4
	.db #0x00	; 0
	.db #0x00	; 0
	.db #0x00	; 0
	.db #0x00	; 0
	.db #0x00	; 0
	.db #0x00	; 0
	.db #0x00	; 0
	.db #0x00	; 0
	.db #0x00	; 0
	.db #0x00	; 0
	.db #0x00	; 0
	.db #0x00	; 0
	.db #0xe0	; 224
	.db #0xe0	; 224
	.db #0xf0	; 240
	.db #0x10	; 16
	.db #0x0b	; 11
	.db #0x08	; 8
	.db #0x37	; 55	'7'
	.db #0x30	; 48	'0'
	.db #0x4f	; 79	'O'
	.db #0x40	; 64
	.db #0xbf	; 191
	.db #0x80	; 128
	.db #0xbf	; 191
	.db #0x80	; 128
	.db #0x7f	; 127
	.db #0x40	; 64
	.db #0x3f	; 63
	.db #0x20	; 32
	.db #0x1f	; 31
	.db #0x1f	; 31
	.db #0xf8	; 248
	.db #0x18	; 24
	.db #0xe4	; 228
	.db #0x1c	; 28
	.db #0xfa	; 250
	.db #0x06	; 6
	.db #0xfd	; 253
	.db #0x03	; 3
	.db #0xfd	; 253
	.db #0x03	; 3
	.db #0xfa	; 250
	.db #0x06	; 6
	.db #0xe4	; 228
	.db #0x1c	; 28
	.db #0xf8	; 248
	.db #0xf8	; 248
	.db #0x00	; 0
	.db #0x00	; 0
	.db #0x00	; 0
	.db #0x00	; 0
	.db #0x00	; 0
	.db #0x00	; 0
	.db #0x00	; 0
	.db #0x00	; 0
	.db #0x00	; 0
	.db #0x00	; 0
	.db #0x00	; 0
	.db #0x00	; 0
	.db #0x00	; 0
	.db #0x00	; 0
	.db #0x00	; 0
	.db #0x00	; 0
__xinit__Fase2_Sprites:
	.db #0x00	; 0
	.db #0x00	; 0
	.db #0x00	; 0
	.db #0x00	; 0
	.db #0x00	; 0
	.db #0x00	; 0
	.db #0x00	; 0
	.db #0x00	; 0
	.db #0x00	; 0
	.db #0x00	; 0
	.db #0x00	; 0
	.db #0x00	; 0
	.db #0x00	; 0
	.db #0x00	; 0
	.db #0x00	; 0
	.db #0x00	; 0
	.db #0x00	; 0
	.db #0x00	; 0
	.db #0x00	; 0
	.db #0x0c	; 12
	.db #0x3f	; 63
	.db #0x3f	; 63
	.db #0x23	; 35
	.db #0x3c	; 60
	.db #0x2d	; 45
	.db #0x32	; 50	'2'
	.db #0x2d	; 45
	.db #0x32	; 50	'2'
	.db #0x23	; 35
	.db #0x3c	; 60
	.db #0x3f	; 63
	.db #0x3f	; 63
	.db #0x00	; 0
	.db #0x00	; 0
	.db #0x00	; 0
	.db #0x18	; 24
	.db #0xfe	; 254
	.db #0xfe	; 254
	.db #0x46	; 70	'F'
	.db #0xba	; 186
	.db #0x5a	; 90	'Z'
	.db #0xa6	; 166
	.db #0x5a	; 90	'Z'
	.db #0xa6	; 166
	.db #0x46	; 70	'F'
	.db #0xba	; 186
	.db #0xfe	; 254
	.db #0xfe	; 254
	.db #0x3f	; 63
	.db #0x20	; 32
	.db #0x31	; 49	'1'
	.db #0x2e	; 46
	.db #0x31	; 49	'1'
	.db #0x2e	; 46
	.db #0x3f	; 63
	.db #0x20	; 32
	.db #0x31	; 49	'1'
	.db #0x20	; 32
	.db #0x31	; 49	'1'
	.db #0x20	; 32
	.db #0x3f	; 63
	.db #0x20	; 32
	.db #0xff	; 255
	.db #0xff	; 255
	.db #0xfe	; 254
	.db #0x82	; 130
	.db #0xc6	; 198
	.db #0x82	; 130
	.db #0xc6	; 198
	.db #0x82	; 130
	.db #0xfe	; 254
	.db #0x82	; 130
	.db #0xc6	; 198
	.db #0xba	; 186
	.db #0xc6	; 198
	.db #0xba	; 186
	.db #0xfe	; 254
	.db #0x82	; 130
	.db #0xff	; 255
	.db #0xff	; 255
	.db #0xff	; 255
	.db #0xff	; 255
	.db #0x55	; 85	'U'
	.db #0xaa	; 170
	.db #0xaa	; 170
	.db #0x55	; 85	'U'
	.db #0x55	; 85	'U'
	.db #0xaa	; 170
	.db #0xaa	; 170
	.db #0x55	; 85	'U'
	.db #0x55	; 85	'U'
	.db #0xaa	; 170
	.db #0xaa	; 170
	.db #0x55	; 85	'U'
	.db #0x55	; 85	'U'
	.db #0xaa	; 170
	.db #0xef	; 239
	.db #0xdf	; 223
	.db #0x55	; 85	'U'
	.db #0xaa	; 170
	.db #0xaa	; 170
	.db #0x55	; 85	'U'
	.db #0x55	; 85	'U'
	.db #0xaa	; 170
	.db #0xaa	; 170
	.db #0x55	; 85	'U'
	.db #0x55	; 85	'U'
	.db #0xaa	; 170
	.db #0xaa	; 170
	.db #0x55	; 85	'U'
	.db #0x55	; 85	'U'
	.db #0xaa	; 170
	.db #0xef	; 239
	.db #0xdf	; 223
	.db #0x55	; 85	'U'
	.db #0xaa	; 170
	.db #0xaa	; 170
	.db #0x55	; 85	'U'
	.db #0x55	; 85	'U'
	.db #0xaa	; 170
	.db #0xaa	; 170
	.db #0x55	; 85	'U'
	.db #0x55	; 85	'U'
	.db #0xaa	; 170
	.db #0xaa	; 170
	.db #0x55	; 85	'U'
	.db #0xff	; 255
	.db #0xff	; 255
	.db #0x03	; 3
	.db #0x03	; 3
	.db #0x07	; 7
	.db #0x04	; 4
	.db #0x0f	; 15
	.db #0x08	; 8
	.db #0x1f	; 31
	.db #0x10	; 16
	.db #0x1f	; 31
	.db #0x10	; 16
	.db #0x3f	; 63
	.db #0x20	; 32
	.db #0x3f	; 63
	.db #0x20	; 32
	.db #0x3a	; 58
	.db #0x25	; 37
	.db #0xc0	; 192
	.db #0xc0	; 192
	.db #0xe0	; 224
	.db #0x20	; 32
	.db #0xf0	; 240
	.db #0x10	; 16
	.db #0xf8	; 248
	.db #0x08	; 8
	.db #0xf8	; 248
	.db #0x08	; 8
	.db #0xfc	; 252
	.db #0x04	; 4
	.db #0xfc	; 252
	.db #0x04	; 4
	.db #0x7c	; 124
	.db #0x84	; 132
	.db #0x38	; 56	'8'
	.db #0x27	; 39
	.db #0x1e	; 30
	.db #0x11	; 17
	.db #0x0e	; 14
	.db #0x0f	; 15
	.db #0x02	; 2
	.db #0x03	; 3
	.db #0x02	; 2
	.db #0x03	; 3
	.db #0x02	; 2
	.db #0x03	; 3
	.db #0x04	; 4
	.db #0x07	; 7
	.db #0x07	; 7
	.db #0x07	; 7
	.db #0x5c	; 92
	.db #0xa4	; 164
	.db #0x18	; 24
	.db #0xe8	; 232
	.db #0x70	; 112	'p'
	.db #0xf0	; 240
	.db #0x40	; 64
	.db #0xc0	; 192
	.db #0x40	; 64
	.db #0xc0	; 192
	.db #0x40	; 64
	.db #0xc0	; 192
	.db #0x20	; 32
	.db #0xe0	; 224
	.db #0xe0	; 224
	.db #0xe0	; 224
	.db #0x00	; 0
	.db #0x00	; 0
	.db #0x00	; 0
	.db #0x00	; 0
	.db #0x00	; 0
	.db #0x00	; 0
	.db #0x00	; 0
	.db #0x00	; 0
	.db #0x00	; 0
	.db #0x00	; 0
	.db #0x00	; 0
	.db #0x00	; 0
	.db #0x03	; 3
	.db #0x03	; 3
	.db #0x04	; 4
	.db #0x04	; 4
	.db #0x00	; 0
	.db #0x00	; 0
	.db #0x00	; 0
	.db #0x00	; 0
	.db #0x00	; 0
	.db #0x00	; 0
	.db #0x00	; 0
	.db #0x00	; 0
	.db #0x00	; 0
	.db #0x00	; 0
	.db #0x00	; 0
	.db #0x00	; 0
	.db #0xe0	; 224
	.db #0xe0	; 224
	.db #0xf0	; 240
	.db #0x10	; 16
	.db #0x0b	; 11
	.db #0x08	; 8
	.db #0x37	; 55	'7'
	.db #0x30	; 48	'0'
	.db #0x4f	; 79	'O'
	.db #0x40	; 64
	.db #0xbf	; 191
	.db #0x80	; 128
	.db #0xbf	; 191
	.db #0x80	; 128
	.db #0x7f	; 127
	.db #0x40	; 64
	.db #0x3f	; 63
	.db #0x20	; 32
	.db #0x1f	; 31
	.db #0x1f	; 31
	.db #0xf8	; 248
	.db #0x18	; 24
	.db #0xe4	; 228
	.db #0x1c	; 28
	.db #0xfa	; 250
	.db #0x06	; 6
	.db #0xfd	; 253
	.db #0x03	; 3
	.db #0xfd	; 253
	.db #0x03	; 3
	.db #0xfa	; 250
	.db #0x06	; 6
	.db #0xe4	; 228
	.db #0x1c	; 28
	.db #0xf8	; 248
	.db #0xf8	; 248
__xinit__Student:
	.db #0x0f	; 15
	.db #0x0f	; 15
	.db #0x1f	; 31
	.db #0x1f	; 31
	.db #0x1f	; 31
	.db #0x1f	; 31
	.db #0x3f	; 63
	.db #0x3e	; 62
	.db #0x3f	; 63
	.db #0x3c	; 60
	.db #0x1e	; 30
	.db #0x1d	; 29
	.db #0x1f	; 31
	.db #0x18	; 24
	.db #0x03	; 3
	.db #0x00	; 0
	.db #0x00	; 0
	.db #0x00	; 0
	.db #0xc0	; 192
	.db #0xc0	; 192
	.db #0xc0	; 192
	.db #0xc0	; 192
	.db #0x80	; 128
	.db #0x00	; 0
	.db #0x80	; 128
	.db #0x80	; 128
	.db #0x80	; 128
	.db #0x00	; 0
	.db #0x80	; 128
	.db #0x00	; 0
	.db #0x00	; 0
	.db #0x00	; 0
	.db #0x00	; 0
	.db #0x0f	; 15
	.db #0x03	; 3
	.db #0x0f	; 15
	.db #0x03	; 3
	.db #0x0f	; 15
	.db #0x07	; 7
	.db #0x07	; 7
	.db #0x07	; 7
	.db #0x07	; 7
	.db #0x00	; 0
	.db #0x04	; 4
	.db #0x00	; 0
	.db #0x04	; 4
	.db #0x06	; 6
	.db #0x06	; 6
	.db #0x80	; 128
	.db #0x80	; 128
	.db #0x80	; 128
	.db #0x80	; 128
	.db #0x80	; 128
	.db #0x80	; 128
	.db #0x80	; 128
	.db #0x80	; 128
	.db #0x80	; 128
	.db #0x80	; 128
	.db #0x00	; 0
	.db #0x80	; 128
	.db #0x00	; 0
	.db #0x80	; 128
	.db #0xc0	; 192
	.db #0xc0	; 192
__xinit__Fase1_BackGround:
	.db #0x13	; 19
	.db #0x13	; 19
	.db #0x13	; 19
	.db #0x13	; 19
	.db #0x13	; 19
	.db #0x13	; 19
	.db #0x13	; 19
	.db #0x13	; 19
	.db #0x13	; 19
	.db #0x13	; 19
	.db #0x13	; 19
	.db #0x13	; 19
	.db #0x13	; 19
	.db #0x13	; 19
	.db #0x13	; 19
	.db #0x13	; 19
	.db #0x13	; 19
	.db #0x13	; 19
	.db #0x13	; 19
	.db #0x13	; 19
	.db #0x13	; 19
	.db #0x13	; 19
	.db #0x13	; 19
	.db #0x13	; 19
	.db #0x13	; 19
	.db #0x13	; 19
	.db #0x13	; 19
	.db #0x13	; 19
	.db #0x13	; 19
	.db #0x13	; 19
	.db #0x13	; 19
	.db #0x13	; 19
	.db #0x13	; 19
	.db #0x13	; 19
	.db #0x13	; 19
	.db #0x13	; 19
	.db #0x13	; 19
	.db #0x13	; 19
	.db #0x13	; 19
	.db #0x13	; 19
	.db #0x13	; 19
	.db #0x13	; 19
	.db #0x13	; 19
	.db #0x13	; 19
	.db #0x13	; 19
	.db #0x13	; 19
	.db #0x13	; 19
	.db #0x13	; 19
	.db #0x13	; 19
	.db #0x13	; 19
	.db #0x13	; 19
	.db #0x13	; 19
	.db #0x13	; 19
	.db #0x13	; 19
	.db #0x13	; 19
	.db #0x13	; 19
	.db #0x13	; 19
	.db #0x13	; 19
	.db #0x13	; 19
	.db #0x13	; 19
	.db #0x13	; 19
	.db #0x13	; 19
	.db #0x13	; 19
	.db #0x13	; 19
	.db #0x13	; 19
	.db #0x13	; 19
	.db #0x13	; 19
	.db #0x13	; 19
	.db #0x13	; 19
	.db #0x13	; 19
	.db #0x13	; 19
	.db #0x13	; 19
	.db #0x13	; 19
	.db #0x13	; 19
	.db #0x13	; 19
	.db #0x13	; 19
	.db #0x13	; 19
	.db #0x13	; 19
	.db #0x13	; 19
	.db #0x13	; 19
	.db #0x13	; 19
	.db #0x13	; 19
	.db #0x13	; 19
	.db #0x13	; 19
	.db #0x13	; 19
	.db #0x13	; 19
	.db #0x13	; 19
	.db #0x13	; 19
	.db #0x13	; 19
	.db #0x13	; 19
	.db #0x13	; 19
	.db #0x13	; 19
	.db #0x13	; 19
	.db #0x13	; 19
	.db #0x13	; 19
	.db #0x13	; 19
	.db #0x13	; 19
	.db #0x13	; 19
	.db #0x13	; 19
	.db #0x0f	; 15
	.db #0x10	; 16
	.db #0x13	; 19
	.db #0x13	; 19
	.db #0x13	; 19
	.db #0x13	; 19
	.db #0x13	; 19
	.db #0x13	; 19
	.db #0x13	; 19
	.db #0x13	; 19
	.db #0x13	; 19
	.db #0x13	; 19
	.db #0x13	; 19
	.db #0x13	; 19
	.db #0x13	; 19
	.db #0x13	; 19
	.db #0x13	; 19
	.db #0x13	; 19
	.db #0x13	; 19
	.db #0x0f	; 15
	.db #0x10	; 16
	.db #0x13	; 19
	.db #0x13	; 19
	.db #0x13	; 19
	.db #0x13	; 19
	.db #0x13	; 19
	.db #0x13	; 19
	.db #0x13	; 19
	.db #0x13	; 19
	.db #0x13	; 19
	.db #0x13	; 19
	.db #0x13	; 19
	.db #0x11	; 17
	.db #0x12	; 18
	.db #0x13	; 19
	.db #0x13	; 19
	.db #0x0f	; 15
	.db #0x10	; 16
	.db #0x13	; 19
	.db #0x13	; 19
	.db #0x13	; 19
	.db #0x13	; 19
	.db #0x13	; 19
	.db #0x13	; 19
	.db #0x0f	; 15
	.db #0x10	; 16
	.db #0x13	; 19
	.db #0x13	; 19
	.db #0x13	; 19
	.db #0x13	; 19
	.db #0x13	; 19
	.db #0x11	; 17
	.db #0x12	; 18
	.db #0x13	; 19
	.db #0x13	; 19
	.db #0x13	; 19
	.db #0x13	; 19
	.db #0x13	; 19
	.db #0x0f	; 15
	.db #0x10	; 16
	.db #0x13	; 19
	.db #0x13	; 19
	.db #0x13	; 19
	.db #0x13	; 19
	.db #0x13	; 19
	.db #0x13	; 19
	.db #0x13	; 19
	.db #0x13	; 19
	.db #0x11	; 17
	.db #0x12	; 18
	.db #0x13	; 19
	.db #0x13	; 19
	.db #0x13	; 19
	.db #0x13	; 19
	.db #0x13	; 19
	.db #0x13	; 19
	.db #0x11	; 17
	.db #0x12	; 18
	.db #0x13	; 19
	.db #0x13	; 19
	.db #0x13	; 19
	.db #0x13	; 19
	.db #0x13	; 19
	.db #0x13	; 19
	.db #0x13	; 19
	.db #0x13	; 19
	.db #0x13	; 19
	.db #0x13	; 19
	.db #0x13	; 19
	.db #0x13	; 19
	.db #0x11	; 17
	.db #0x12	; 18
	.db #0x13	; 19
	.db #0x13	; 19
	.db #0x13	; 19
	.db #0x0f	; 15
	.db #0x10	; 16
	.db #0x13	; 19
	.db #0x13	; 19
	.db #0x13	; 19
	.db #0x13	; 19
	.db #0x13	; 19
	.db #0x13	; 19
	.db #0x0f	; 15
	.db #0x10	; 16
	.db #0x13	; 19
	.db #0x13	; 19
	.db #0x13	; 19
	.db #0x13	; 19
	.db #0x13	; 19
	.db #0x13	; 19
	.db #0x13	; 19
	.db #0x0f	; 15
	.db #0x10	; 16
	.db #0x13	; 19
	.db #0x13	; 19
	.db #0x13	; 19
	.db #0x13	; 19
	.db #0x13	; 19
	.db #0x0f	; 15
	.db #0x10	; 16
	.db #0x13	; 19
	.db #0x13	; 19
	.db #0x13	; 19
	.db #0x13	; 19
	.db #0x13	; 19
	.db #0x13	; 19
	.db #0x11	; 17
	.db #0x12	; 18
	.db #0x13	; 19
	.db #0x13	; 19
	.db #0x13	; 19
	.db #0x13	; 19
	.db #0x13	; 19
	.db #0x13	; 19
	.db #0x11	; 17
	.db #0x12	; 18
	.db #0x13	; 19
	.db #0x13	; 19
	.db #0x13	; 19
	.db #0x13	; 19
	.db #0x13	; 19
	.db #0x13	; 19
	.db #0x13	; 19
	.db #0x11	; 17
	.db #0x12	; 18
	.db #0x13	; 19
	.db #0x13	; 19
	.db #0x13	; 19
	.db #0x13	; 19
	.db #0x13	; 19
	.db #0x11	; 17
	.db #0x12	; 18
	.db #0x13	; 19
	.db #0x13	; 19
	.db #0x13	; 19
	.db #0x13	; 19
	.db #0x13	; 19
	.db #0x13	; 19
	.db #0x13	; 19
	.db #0x13	; 19
	.db #0x13	; 19
	.db #0x13	; 19
	.db #0x13	; 19
	.db #0x13	; 19
	.db #0x13	; 19
	.db #0x13	; 19
	.db #0x13	; 19
	.db #0x13	; 19
	.db #0x13	; 19
	.db #0x13	; 19
	.db #0x13	; 19
	.db #0x13	; 19
	.db #0x13	; 19
	.db #0x13	; 19
	.db #0x13	; 19
	.db #0x13	; 19
	.db #0x13	; 19
	.db #0x13	; 19
	.db #0x13	; 19
	.db #0x13	; 19
	.db #0x13	; 19
	.db #0x13	; 19
	.db #0x13	; 19
	.db #0x13	; 19
	.db #0x13	; 19
	.db #0x13	; 19
	.db #0x13	; 19
	.db #0x13	; 19
	.db #0x13	; 19
	.db #0x13	; 19
	.db #0x13	; 19
	.db #0x13	; 19
	.db #0x13	; 19
	.db #0x13	; 19
	.db #0x13	; 19
	.db #0x13	; 19
	.db #0x13	; 19
	.db #0x13	; 19
	.db #0x13	; 19
	.db #0x13	; 19
	.db #0x13	; 19
	.db #0x13	; 19
	.db #0x13	; 19
	.db #0x13	; 19
	.db #0x13	; 19
	.db #0x13	; 19
	.db #0x13	; 19
	.db #0x13	; 19
	.db #0x13	; 19
	.db #0x13	; 19
	.db #0x13	; 19
	.db #0x13	; 19
	.db #0x13	; 19
	.db #0x13	; 19
	.db #0x13	; 19
	.db #0x13	; 19
	.db #0x13	; 19
	.db #0x13	; 19
	.db #0x13	; 19
	.db #0x13	; 19
	.db #0x13	; 19
	.db #0x13	; 19
	.db #0x13	; 19
	.db #0x13	; 19
	.db #0x13	; 19
	.db #0x13	; 19
	.db #0x13	; 19
	.db #0x13	; 19
	.db #0x13	; 19
	.db #0x13	; 19
	.db #0x13	; 19
	.db #0x13	; 19
	.db #0x13	; 19
	.db #0x13	; 19
	.db #0x13	; 19
	.db #0x13	; 19
	.db #0x13	; 19
	.db #0x13	; 19
	.db #0x13	; 19
	.db #0x13	; 19
	.db #0x13	; 19
	.db #0x13	; 19
	.db #0x13	; 19
	.db #0x13	; 19
	.db #0x13	; 19
	.db #0x13	; 19
	.db #0x13	; 19
	.db #0x13	; 19
	.db #0x13	; 19
	.db #0x13	; 19
	.db #0x13	; 19
	.db #0x13	; 19
	.db #0x13	; 19
	.db #0x13	; 19
	.db #0x13	; 19
	.db #0x13	; 19
	.db #0x13	; 19
	.db #0x13	; 19
	.db #0x13	; 19
	.db #0x13	; 19
	.db #0x13	; 19
	.db #0x13	; 19
	.db #0x13	; 19
	.db #0x13	; 19
	.db #0x13	; 19
	.db #0x13	; 19
	.db #0x13	; 19
	.db #0x13	; 19
	.db #0x13	; 19
	.db #0x13	; 19
	.db #0x13	; 19
	.db #0x13	; 19
	.db #0x13	; 19
	.db #0x13	; 19
	.db #0x13	; 19
	.db #0x13	; 19
	.db #0x13	; 19
	.db #0x13	; 19
	.db #0x13	; 19
	.db #0x13	; 19
	.db #0x13	; 19
	.db #0x13	; 19
	.db #0x13	; 19
	.db #0x13	; 19
	.db #0x13	; 19
	.db #0x13	; 19
	.db #0x13	; 19
	.db #0x08	; 8
	.db #0x09	; 9
	.db #0x13	; 19
	.db #0x13	; 19
	.db #0x13	; 19
	.db #0x13	; 19
	.db #0x13	; 19
	.db #0x04	; 4
	.db #0x05	; 5
	.db #0x13	; 19
	.db #0x13	; 19
	.db #0x13	; 19
	.db #0x08	; 8
	.db #0x09	; 9
	.db #0x13	; 19
	.db #0x13	; 19
	.db #0x13	; 19
	.db #0x13	; 19
	.db #0x00	; 0
	.db #0x01	; 1
	.db #0x13	; 19
	.db #0x13	; 19
	.db #0x13	; 19
	.db #0x13	; 19
	.db #0x04	; 4
	.db #0x05	; 5
	.db #0x13	; 19
	.db #0x13	; 19
	.db #0x13	; 19
	.db #0x13	; 19
	.db #0x13	; 19
	.db #0x13	; 19
	.db #0x0a	; 10
	.db #0x0b	; 11
	.db #0x13	; 19
	.db #0x13	; 19
	.db #0x13	; 19
	.db #0x13	; 19
	.db #0x13	; 19
	.db #0x06	; 6
	.db #0x07	; 7
	.db #0x13	; 19
	.db #0x13	; 19
	.db #0x13	; 19
	.db #0x0a	; 10
	.db #0x0b	; 11
	.db #0x13	; 19
	.db #0x13	; 19
	.db #0x13	; 19
	.db #0x13	; 19
	.db #0x02	; 2
	.db #0x03	; 3
	.db #0x13	; 19
	.db #0x13	; 19
	.db #0x13	; 19
	.db #0x13	; 19
	.db #0x06	; 6
	.db #0x07	; 7
	.db #0x13	; 19
	.db #0x13	; 19
	.db #0x13	; 19
	.db #0x0c	; 12
	.db #0x0c	; 12
	.db #0x0c	; 12
	.db #0x0c	; 12
	.db #0x0c	; 12
	.db #0x0c	; 12
	.db #0x0c	; 12
	.db #0x0c	; 12
	.db #0x0c	; 12
	.db #0x0c	; 12
	.db #0x0c	; 12
	.db #0x0c	; 12
	.db #0x0c	; 12
	.db #0x0c	; 12
	.db #0x0c	; 12
	.db #0x0c	; 12
	.db #0x0c	; 12
	.db #0x0c	; 12
	.db #0x0c	; 12
	.db #0x0c	; 12
	.db #0x0c	; 12
	.db #0x0c	; 12
	.db #0x0c	; 12
	.db #0x0c	; 12
	.db #0x0c	; 12
	.db #0x0c	; 12
	.db #0x0c	; 12
	.db #0x0c	; 12
	.db #0x0c	; 12
	.db #0x0c	; 12
	.db #0x0c	; 12
	.db #0x0c	; 12
	.db #0x0d	; 13
	.db #0x0d	; 13
	.db #0x0d	; 13
	.db #0x0d	; 13
	.db #0x0d	; 13
	.db #0x0d	; 13
	.db #0x0d	; 13
	.db #0x0d	; 13
	.db #0x0d	; 13
	.db #0x0d	; 13
	.db #0x0d	; 13
	.db #0x0d	; 13
	.db #0x0d	; 13
	.db #0x0d	; 13
	.db #0x0d	; 13
	.db #0x0d	; 13
	.db #0x0d	; 13
	.db #0x0d	; 13
	.db #0x0d	; 13
	.db #0x0d	; 13
	.db #0x0d	; 13
	.db #0x0d	; 13
	.db #0x0d	; 13
	.db #0x0d	; 13
	.db #0x0d	; 13
	.db #0x0d	; 13
	.db #0x0d	; 13
	.db #0x0d	; 13
	.db #0x0d	; 13
	.db #0x0d	; 13
	.db #0x0d	; 13
	.db #0x0d	; 13
	.db #0x0d	; 13
	.db #0x0d	; 13
	.db #0x0d	; 13
	.db #0x0d	; 13
	.db #0x0d	; 13
	.db #0x0d	; 13
	.db #0x0d	; 13
	.db #0x0d	; 13
	.db #0x0d	; 13
	.db #0x0d	; 13
	.db #0x0d	; 13
	.db #0x0d	; 13
	.db #0x0d	; 13
	.db #0x0d	; 13
	.db #0x0d	; 13
	.db #0x0d	; 13
	.db #0x0d	; 13
	.db #0x0d	; 13
	.db #0x0d	; 13
	.db #0x0d	; 13
	.db #0x0d	; 13
	.db #0x0d	; 13
	.db #0x0d	; 13
	.db #0x0d	; 13
	.db #0x0d	; 13
	.db #0x0d	; 13
	.db #0x0d	; 13
	.db #0x0d	; 13
	.db #0x0d	; 13
	.db #0x0d	; 13
	.db #0x0d	; 13
	.db #0x0d	; 13
	.db #0x0e	; 14
	.db #0x0e	; 14
	.db #0x0e	; 14
	.db #0x0e	; 14
	.db #0x0e	; 14
	.db #0x0e	; 14
	.db #0x0e	; 14
	.db #0x0e	; 14
	.db #0x0e	; 14
	.db #0x0e	; 14
	.db #0x0e	; 14
	.db #0x0e	; 14
	.db #0x0e	; 14
	.db #0x0e	; 14
	.db #0x0e	; 14
	.db #0x0e	; 14
	.db #0x0e	; 14
	.db #0x0e	; 14
	.db #0x0e	; 14
	.db #0x0e	; 14
	.db #0x0e	; 14
	.db #0x0e	; 14
	.db #0x0e	; 14
	.db #0x0e	; 14
	.db #0x0e	; 14
	.db #0x0e	; 14
	.db #0x0e	; 14
	.db #0x0e	; 14
	.db #0x0e	; 14
	.db #0x0e	; 14
	.db #0x0e	; 14
	.db #0x0e	; 14
__xinit__Fase2_BackGround:
	.db #0x00	; 0
	.db #0x00	; 0
	.db #0x00	; 0
	.db #0x00	; 0
	.db #0x00	; 0
	.db #0x00	; 0
	.db #0x00	; 0
	.db #0x00	; 0
	.db #0x00	; 0
	.db #0x00	; 0
	.db #0x00	; 0
	.db #0x00	; 0
	.db #0x00	; 0
	.db #0x00	; 0
	.db #0x00	; 0
	.db #0x00	; 0
	.db #0x00	; 0
	.db #0x00	; 0
	.db #0x00	; 0
	.db #0x00	; 0
	.db #0x00	; 0
	.db #0x00	; 0
	.db #0x00	; 0
	.db #0x00	; 0
	.db #0x00	; 0
	.db #0x00	; 0
	.db #0x00	; 0
	.db #0x00	; 0
	.db #0x00	; 0
	.db #0x00	; 0
	.db #0x00	; 0
	.db #0x00	; 0
	.db #0x00	; 0
	.db #0x00	; 0
	.db #0x00	; 0
	.db #0x00	; 0
	.db #0x00	; 0
	.db #0x00	; 0
	.db #0x00	; 0
	.db #0x00	; 0
	.db #0x00	; 0
	.db #0x00	; 0
	.db #0x00	; 0
	.db #0x00	; 0
	.db #0x00	; 0
	.db #0x00	; 0
	.db #0x00	; 0
	.db #0x00	; 0
	.db #0x00	; 0
	.db #0x00	; 0
	.db #0x00	; 0
	.db #0x00	; 0
	.db #0x00	; 0
	.db #0x00	; 0
	.db #0x00	; 0
	.db #0x00	; 0
	.db #0x00	; 0
	.db #0x00	; 0
	.db #0x00	; 0
	.db #0x00	; 0
	.db #0x00	; 0
	.db #0x00	; 0
	.db #0x00	; 0
	.db #0x00	; 0
	.db #0x00	; 0
	.db #0x00	; 0
	.db #0x00	; 0
	.db #0x00	; 0
	.db #0x00	; 0
	.db #0x00	; 0
	.db #0x00	; 0
	.db #0x00	; 0
	.db #0x00	; 0
	.db #0x00	; 0
	.db #0x00	; 0
	.db #0x00	; 0
	.db #0x00	; 0
	.db #0x00	; 0
	.db #0x00	; 0
	.db #0x00	; 0
	.db #0x00	; 0
	.db #0x00	; 0
	.db #0x00	; 0
	.db #0x00	; 0
	.db #0x00	; 0
	.db #0x00	; 0
	.db #0x00	; 0
	.db #0x00	; 0
	.db #0x00	; 0
	.db #0x00	; 0
	.db #0x00	; 0
	.db #0x00	; 0
	.db #0x00	; 0
	.db #0x00	; 0
	.db #0x00	; 0
	.db #0x00	; 0
	.db #0x00	; 0
	.db #0x00	; 0
	.db #0x00	; 0
	.db #0x0c	; 12
	.db #0x0d	; 13
	.db #0x00	; 0
	.db #0x00	; 0
	.db #0x00	; 0
	.db #0x00	; 0
	.db #0x00	; 0
	.db #0x00	; 0
	.db #0x0c	; 12
	.db #0x0d	; 13
	.db #0x00	; 0
	.db #0x00	; 0
	.db #0x00	; 0
	.db #0x00	; 0
	.db #0x00	; 0
	.db #0x00	; 0
	.db #0x00	; 0
	.db #0x00	; 0
	.db #0x00	; 0
	.db #0x00	; 0
	.db #0x00	; 0
	.db #0x00	; 0
	.db #0x00	; 0
	.db #0x0c	; 12
	.db #0x0d	; 13
	.db #0x00	; 0
	.db #0x00	; 0
	.db #0x00	; 0
	.db #0x00	; 0
	.db #0x00	; 0
	.db #0x00	; 0
	.db #0x00	; 0
	.db #0x0e	; 14
	.db #0x0f	; 15
	.db #0x00	; 0
	.db #0x00	; 0
	.db #0x00	; 0
	.db #0x00	; 0
	.db #0x00	; 0
	.db #0x00	; 0
	.db #0x0e	; 14
	.db #0x0f	; 15
	.db #0x00	; 0
	.db #0x00	; 0
	.db #0x00	; 0
	.db #0x00	; 0
	.db #0x00	; 0
	.db #0x00	; 0
	.db #0x00	; 0
	.db #0x0c	; 12
	.db #0x0d	; 13
	.db #0x00	; 0
	.db #0x00	; 0
	.db #0x00	; 0
	.db #0x00	; 0
	.db #0x0e	; 14
	.db #0x0f	; 15
	.db #0x00	; 0
	.db #0x00	; 0
	.db #0x00	; 0
	.db #0x00	; 0
	.db #0x00	; 0
	.db #0x00	; 0
	.db #0x00	; 0
	.db #0x00	; 0
	.db #0x00	; 0
	.db #0x00	; 0
	.db #0x00	; 0
	.db #0x0c	; 12
	.db #0x0d	; 13
	.db #0x00	; 0
	.db #0x00	; 0
	.db #0x00	; 0
	.db #0x00	; 0
	.db #0x00	; 0
	.db #0x00	; 0
	.db #0x00	; 0
	.db #0x0c	; 12
	.db #0x0d	; 13
	.db #0x00	; 0
	.db #0x00	; 0
	.db #0x0e	; 14
	.db #0x0f	; 15
	.db #0x00	; 0
	.db #0x00	; 0
	.db #0x00	; 0
	.db #0x00	; 0
	.db #0x00	; 0
	.db #0x00	; 0
	.db #0x00	; 0
	.db #0x0c	; 12
	.db #0x0d	; 13
	.db #0x00	; 0
	.db #0x00	; 0
	.db #0x0c	; 12
	.db #0x0d	; 13
	.db #0x00	; 0
	.db #0x00	; 0
	.db #0x00	; 0
	.db #0x00	; 0
	.db #0x0e	; 14
	.db #0x0f	; 15
	.db #0x00	; 0
	.db #0x00	; 0
	.db #0x00	; 0
	.db #0x00	; 0
	.db #0x00	; 0
	.db #0x00	; 0
	.db #0x00	; 0
	.db #0x0e	; 14
	.db #0x0f	; 15
	.db #0x00	; 0
	.db #0x00	; 0
	.db #0x00	; 0
	.db #0x00	; 0
	.db #0x00	; 0
	.db #0x00	; 0
	.db #0x0c	; 12
	.db #0x0d	; 13
	.db #0x00	; 0
	.db #0x00	; 0
	.db #0x00	; 0
	.db #0x0e	; 14
	.db #0x0f	; 15
	.db #0x00	; 0
	.db #0x00	; 0
	.db #0x0e	; 14
	.db #0x0f	; 15
	.db #0x00	; 0
	.db #0x00	; 0
	.db #0x00	; 0
	.db #0x00	; 0
	.db #0x00	; 0
	.db #0x00	; 0
	.db #0x00	; 0
	.db #0x00	; 0
	.db #0x00	; 0
	.db #0x00	; 0
	.db #0x00	; 0
	.db #0x00	; 0
	.db #0x00	; 0
	.db #0x00	; 0
	.db #0x00	; 0
	.db #0x00	; 0
	.db #0x00	; 0
	.db #0x00	; 0
	.db #0x00	; 0
	.db #0x00	; 0
	.db #0x00	; 0
	.db #0x0e	; 14
	.db #0x0f	; 15
	.db #0x00	; 0
	.db #0x00	; 0
	.db #0x00	; 0
	.db #0x00	; 0
	.db #0x00	; 0
	.db #0x00	; 0
	.db #0x00	; 0
	.db #0x00	; 0
	.db #0x00	; 0
	.db #0x00	; 0
	.db #0x00	; 0
	.db #0x00	; 0
	.db #0x00	; 0
	.db #0x00	; 0
	.db #0x00	; 0
	.db #0x00	; 0
	.db #0x00	; 0
	.db #0x00	; 0
	.db #0x00	; 0
	.db #0x00	; 0
	.db #0x00	; 0
	.db #0x00	; 0
	.db #0x00	; 0
	.db #0x00	; 0
	.db #0x00	; 0
	.db #0x00	; 0
	.db #0x00	; 0
	.db #0x00	; 0
	.db #0x00	; 0
	.db #0x00	; 0
	.db #0x00	; 0
	.db #0x00	; 0
	.db #0x00	; 0
	.db #0x00	; 0
	.db #0x00	; 0
	.db #0x00	; 0
	.db #0x00	; 0
	.db #0x00	; 0
	.db #0x00	; 0
	.db #0x00	; 0
	.db #0x00	; 0
	.db #0x00	; 0
	.db #0x00	; 0
	.db #0x00	; 0
	.db #0x00	; 0
	.db #0x00	; 0
	.db #0x00	; 0
	.db #0x00	; 0
	.db #0x00	; 0
	.db #0x00	; 0
	.db #0x00	; 0
	.db #0x00	; 0
	.db #0x00	; 0
	.db #0x00	; 0
	.db #0x00	; 0
	.db #0x00	; 0
	.db #0x00	; 0
	.db #0x00	; 0
	.db #0x00	; 0
	.db #0x00	; 0
	.db #0x00	; 0
	.db #0x00	; 0
	.db #0x00	; 0
	.db #0x00	; 0
	.db #0x00	; 0
	.db #0x00	; 0
	.db #0x00	; 0
	.db #0x00	; 0
	.db #0x00	; 0
	.db #0x00	; 0
	.db #0x00	; 0
	.db #0x00	; 0
	.db #0x00	; 0
	.db #0x00	; 0
	.db #0x00	; 0
	.db #0x00	; 0
	.db #0x00	; 0
	.db #0x00	; 0
	.db #0x00	; 0
	.db #0x00	; 0
	.db #0x00	; 0
	.db #0x00	; 0
	.db #0x00	; 0
	.db #0x00	; 0
	.db #0x00	; 0
	.db #0x00	; 0
	.db #0x00	; 0
	.db #0x00	; 0
	.db #0x00	; 0
	.db #0x00	; 0
	.db #0x00	; 0
	.db #0x00	; 0
	.db #0x00	; 0
	.db #0x00	; 0
	.db #0x00	; 0
	.db #0x00	; 0
	.db #0x00	; 0
	.db #0x00	; 0
	.db #0x00	; 0
	.db #0x00	; 0
	.db #0x00	; 0
	.db #0x00	; 0
	.db #0x00	; 0
	.db #0x00	; 0
	.db #0x00	; 0
	.db #0x00	; 0
	.db #0x00	; 0
	.db #0x00	; 0
	.db #0x00	; 0
	.db #0x00	; 0
	.db #0x00	; 0
	.db #0x00	; 0
	.db #0x00	; 0
	.db #0x00	; 0
	.db #0x00	; 0
	.db #0x00	; 0
	.db #0x00	; 0
	.db #0x00	; 0
	.db #0x00	; 0
	.db #0x00	; 0
	.db #0x00	; 0
	.db #0x00	; 0
	.db #0x00	; 0
	.db #0x00	; 0
	.db #0x00	; 0
	.db #0x00	; 0
	.db #0x00	; 0
	.db #0x00	; 0
	.db #0x00	; 0
	.db #0x00	; 0
	.db #0x00	; 0
	.db #0x00	; 0
	.db #0x00	; 0
	.db #0x00	; 0
	.db #0x00	; 0
	.db #0x08	; 8
	.db #0x09	; 9
	.db #0x00	; 0
	.db #0x00	; 0
	.db #0x00	; 0
	.db #0x01	; 1
	.db #0x02	; 2
	.db #0x00	; 0
	.db #0x00	; 0
	.db #0x00	; 0
	.db #0x08	; 8
	.db #0x09	; 9
	.db #0x00	; 0
	.db #0x00	; 0
	.db #0x00	; 0
	.db #0x01	; 1
	.db #0x02	; 2
	.db #0x00	; 0
	.db #0x00	; 0
	.db #0x00	; 0
	.db #0x08	; 8
	.db #0x09	; 9
	.db #0x00	; 0
	.db #0x00	; 0
	.db #0x00	; 0
	.db #0x01	; 1
	.db #0x02	; 2
	.db #0x00	; 0
	.db #0x00	; 0
	.db #0x00	; 0
	.db #0x00	; 0
	.db #0x00	; 0
	.db #0x0a	; 10
	.db #0x0b	; 11
	.db #0x00	; 0
	.db #0x00	; 0
	.db #0x00	; 0
	.db #0x03	; 3
	.db #0x04	; 4
	.db #0x00	; 0
	.db #0x00	; 0
	.db #0x00	; 0
	.db #0x0a	; 10
	.db #0x0b	; 11
	.db #0x00	; 0
	.db #0x00	; 0
	.db #0x00	; 0
	.db #0x03	; 3
	.db #0x04	; 4
	.db #0x00	; 0
	.db #0x00	; 0
	.db #0x00	; 0
	.db #0x0a	; 10
	.db #0x0b	; 11
	.db #0x00	; 0
	.db #0x00	; 0
	.db #0x00	; 0
	.db #0x03	; 3
	.db #0x04	; 4
	.db #0x00	; 0
	.db #0x00	; 0
	.db #0x00	; 0
	.db #0x00	; 0
	.db #0x05	; 5
	.db #0x05	; 5
	.db #0x05	; 5
	.db #0x05	; 5
	.db #0x05	; 5
	.db #0x05	; 5
	.db #0x05	; 5
	.db #0x05	; 5
	.db #0x05	; 5
	.db #0x05	; 5
	.db #0x05	; 5
	.db #0x05	; 5
	.db #0x05	; 5
	.db #0x05	; 5
	.db #0x05	; 5
	.db #0x05	; 5
	.db #0x05	; 5
	.db #0x05	; 5
	.db #0x05	; 5
	.db #0x05	; 5
	.db #0x05	; 5
	.db #0x05	; 5
	.db #0x05	; 5
	.db #0x05	; 5
	.db #0x05	; 5
	.db #0x05	; 5
	.db #0x05	; 5
	.db #0x05	; 5
	.db #0x05	; 5
	.db #0x05	; 5
	.db #0x05	; 5
	.db #0x05	; 5
	.db #0x06	; 6
	.db #0x06	; 6
	.db #0x06	; 6
	.db #0x06	; 6
	.db #0x06	; 6
	.db #0x06	; 6
	.db #0x06	; 6
	.db #0x06	; 6
	.db #0x06	; 6
	.db #0x06	; 6
	.db #0x06	; 6
	.db #0x06	; 6
	.db #0x06	; 6
	.db #0x06	; 6
	.db #0x06	; 6
	.db #0x06	; 6
	.db #0x06	; 6
	.db #0x06	; 6
	.db #0x06	; 6
	.db #0x06	; 6
	.db #0x06	; 6
	.db #0x06	; 6
	.db #0x06	; 6
	.db #0x06	; 6
	.db #0x06	; 6
	.db #0x06	; 6
	.db #0x06	; 6
	.db #0x06	; 6
	.db #0x06	; 6
	.db #0x06	; 6
	.db #0x06	; 6
	.db #0x06	; 6
	.db #0x06	; 6
	.db #0x06	; 6
	.db #0x06	; 6
	.db #0x06	; 6
	.db #0x06	; 6
	.db #0x06	; 6
	.db #0x06	; 6
	.db #0x06	; 6
	.db #0x06	; 6
	.db #0x06	; 6
	.db #0x06	; 6
	.db #0x06	; 6
	.db #0x06	; 6
	.db #0x06	; 6
	.db #0x06	; 6
	.db #0x06	; 6
	.db #0x06	; 6
	.db #0x06	; 6
	.db #0x06	; 6
	.db #0x06	; 6
	.db #0x06	; 6
	.db #0x06	; 6
	.db #0x06	; 6
	.db #0x06	; 6
	.db #0x06	; 6
	.db #0x06	; 6
	.db #0x06	; 6
	.db #0x06	; 6
	.db #0x06	; 6
	.db #0x06	; 6
	.db #0x06	; 6
	.db #0x06	; 6
	.db #0x07	; 7
	.db #0x07	; 7
	.db #0x07	; 7
	.db #0x07	; 7
	.db #0x07	; 7
	.db #0x07	; 7
	.db #0x07	; 7
	.db #0x07	; 7
	.db #0x07	; 7
	.db #0x07	; 7
	.db #0x07	; 7
	.db #0x07	; 7
	.db #0x07	; 7
	.db #0x07	; 7
	.db #0x07	; 7
	.db #0x07	; 7
	.db #0x07	; 7
	.db #0x07	; 7
	.db #0x07	; 7
	.db #0x07	; 7
	.db #0x07	; 7
	.db #0x07	; 7
	.db #0x07	; 7
	.db #0x07	; 7
	.db #0x07	; 7
	.db #0x07	; 7
	.db #0x07	; 7
	.db #0x07	; 7
	.db #0x07	; 7
	.db #0x07	; 7
	.db #0x07	; 7
	.db #0x07	; 7
	.area _CABS (ABS)
